target datalayout = "e-m:e-p270:32:32-p271:32:32-p272:64:64-i64:64-i128:128-f80:128-n8:16:32:64-S128"
target triple = "x86_64-pc-linux-gnu"

%"struct.Luau::Position" = type { i32, i32 }
%"struct.Luau::Location" = type { %"struct.Luau::Position", %"struct.Luau::Position" }
%"class.Luau::AstNode.base" = type <{ ptr, i32, %"struct.Luau::Location" }>
%"struct.Luau::AstArray.291" = type { ptr, i64 }
%"class.Luau::AstNode" = type <{ ptr, i32, %"struct.Luau::Location", [4 x i8] }>
%"class.Luau::AstExpr.base" = type { %"class.Luau::AstNode.base" }
%"class.Luau::AstExprInterpString" = type { %"class.Luau::AstExpr.base", %"struct.Luau::AstArray.914", %"struct.Luau::AstArray.291" }
%"struct.Luau::AstArray.914" = type { ptr, i64 }

@_ZN4Luau7AstRttiINS_19AstExprInterpStringEE5valueE = linkonce_odr dso_local global i32 0, comdat, align 4

; Function Attrs: mustprogress nounwind uwtable
define linkonce_odr dso_local noundef i32 @_ZN4Luau19AstExprInterpString10ClassIndexEv() #1 comdat align 2 {
  %1 = load i32, ptr @_ZN4Luau7AstRttiINS_19AstExprInterpStringEE5valueE, align 4
  ret i32 %1
}

; Function Attrs: mustprogress nounwind uwtable
define linkonce_odr dso_local noundef ptr @_ZNK4Luau8AstArrayIPNS_7AstExprEE3endEv(ptr noundef nonnull align 8 dereferenceable(16) %0) #1 comdat align 2 {
  %2 = alloca ptr, align 8
  store ptr %0, ptr %2, align 8
  %3 = load ptr, ptr %2, align 8
  %4 = getelementptr inbounds %"struct.Luau::AstArray.291", ptr %3, i32 0, i32 0
  %5 = load ptr, ptr %4, align 8
  %6 = getelementptr inbounds %"struct.Luau::AstArray.291", ptr %3, i32 0, i32 1
  %7 = load i64, ptr %6, align 8
  %8 = getelementptr inbounds ptr, ptr %5, i64 %7
  ret ptr %8
}

; Function Attrs: mustprogress nounwind uwtable
define linkonce_odr dso_local noundef ptr @_ZNK4Luau8AstArrayIPNS_7AstExprEE5beginEv(ptr noundef nonnull align 8 dereferenceable(16) %0) #1 comdat align 2 {
  %2 = alloca ptr, align 8
  store ptr %0, ptr %2, align 8
  %3 = load ptr, ptr %2, align 8
  %4 = getelementptr inbounds %"struct.Luau::AstArray.291", ptr %3, i32 0, i32 0
  %5 = load ptr, ptr %4, align 8
  ret ptr %5
}

; Function Attrs: mustprogress nounwind uwtable
define linkonce_odr dso_local noundef ptr @_ZNK4Luau7AstNode2asINS_19AstExprInterpStringEEEPKT_v(ptr noundef nonnull align 8 dereferenceable(28) %0) #1 comdat align 2 {
  %2 = alloca ptr, align 8
  store ptr %0, ptr %2, align 8
  %3 = load ptr, ptr %2, align 8
  %4 = getelementptr inbounds %"class.Luau::AstNode", ptr %3, i32 0, i32 1
  %5 = load i32, ptr %4, align 8
  %6 = call noundef i32 @_ZN4Luau19AstExprInterpString10ClassIndexEv()
  %7 = icmp eq i32 %5, %6
  br i1 %7, label %8, label %9

8:                                                ; preds = %1
  br label %10

9:                                                ; preds = %1
  br label %10

10:                                               ; preds = %9, %8
  %11 = phi ptr [ %3, %8 ], [ null, %9 ]
  ret ptr %11
}

; Function Attrs: mustprogress uwtable
define internal noundef zeroext i1 @_ZN4LuauL24stringPartOfInterpStringEPKNS_7AstNodeENS_8PositionE(ptr noundef %0, i64 %1) #4 {
  %3 = alloca i1, align 1
  %4 = alloca %"struct.Luau::Position", align 4
  %5 = alloca ptr, align 8
  %6 = alloca ptr, align 8
  %7 = alloca ptr, align 8
  %8 = alloca ptr, align 8
  %9 = alloca ptr, align 8
  %10 = alloca ptr, align 8
  store i64 %1, ptr %4, align 4
  store ptr %0, ptr %5, align 8
  %11 = load ptr, ptr %5, align 8
  %12 = call noundef ptr @_ZNK4Luau7AstNode2asINS_19AstExprInterpStringEEEPKT_v(ptr noundef nonnull align 8 dereferenceable(28) %11)
  store ptr %12, ptr %6, align 8
  %13 = load ptr, ptr %6, align 8
  %14 = icmp ne ptr %13, null
  br i1 %14, label %16, label %15

15:                                               ; preds = %2
  store i1 false, ptr %3, align 1
  br label %39

16:                                               ; preds = %2
  %17 = load ptr, ptr %6, align 8
  %18 = getelementptr inbounds %"class.Luau::AstExprInterpString", ptr %17, i32 0, i32 2
  store ptr %18, ptr %7, align 8
  %19 = load ptr, ptr %7, align 8
  %20 = call noundef ptr @_ZNK4Luau8AstArrayIPNS_7AstExprEE5beginEv(ptr noundef nonnull align 8 dereferenceable(16) %19)
  store ptr %20, ptr %8, align 8
  %21 = load ptr, ptr %7, align 8
  %22 = call noundef ptr @_ZNK4Luau8AstArrayIPNS_7AstExprEE3endEv(ptr noundef nonnull align 8 dereferenceable(16) %21)
  store ptr %22, ptr %9, align 8
  br label %23

23:                                               ; preds = %35, %16
  %24 = load ptr, ptr %8, align 8
  %25 = load ptr, ptr %9, align 8
  %26 = icmp ne ptr %24, %25
  br i1 %26, label %27, label %38

27:                                               ; preds = %23
  %28 = load ptr, ptr %8, align 8
  %29 = load ptr, ptr %28, align 8
  store ptr %29, ptr %10, align 8
  %30 = load ptr, ptr %10, align 8
  %31 = getelementptr inbounds %"class.Luau::AstNode", ptr %30, i32 0, i32 2
  %32 = call noundef zeroext i1 @_ZNK4Luau8Location14containsClosedERKNS_8PositionE(ptr noundef nonnull align 4 dereferenceable(16) %31, ptr noundef nonnull align 4 dereferenceable(8) %4)
  br i1 %32, label %33, label %34

33:                                               ; preds = %27
  store i1 false, ptr %3, align 1
  br label %39

34:                                               ; preds = %27
  br label %35

35:                                               ; preds = %34
  %36 = load ptr, ptr %8, align 8
  %37 = getelementptr inbounds ptr, ptr %36, i32 1
  store ptr %37, ptr %8, align 8
  br label %23

38:                                               ; preds = %23
  store i1 true, ptr %3, align 1
  br label %39

39:                                               ; preds = %38, %33, %15
  %40 = load i1, ptr %3, align 1
  ret i1 %40
}