; Function Attrs: mustprogress uwtable
define internal fastcc noundef zeroext i1 @_ZN4LuauL24stringPartOfInterpStringEPKNS_7AstNodeENS_8PositionE(ptr noundef readonly %0, i64 %1) unnamed_addr #5 {
  %3 = alloca %"struct.Luau::Position", align 8
  store i64 %1, ptr %3, align 8
  %4 = getelementptr inbounds i8, ptr %0, i64 8
  %5 = load i32, ptr %4, align 8
  %6 = load i32, ptr @_ZN4Luau7AstRttiINS_19AstExprInterpStringEE5valueE, align 4
  %7 = icmp ne i32 %5, %6
  %.not14 = icmp eq ptr %0, null
  %.not = or i1 %.not14, %7
  br i1 %.not, label %.loopexit, label %8

8:                                                ; preds = %2
  %9 = getelementptr inbounds i8, ptr %0, i64 48
  %10 = load ptr, ptr %9, align 8
  %11 = getelementptr inbounds i8, ptr %0, i64 56
  %12 = load i64, ptr %11, align 8
  %13 = getelementptr inbounds ptr, ptr %10, i64 %12
  %.not1315 = icmp eq i64 %12, 0
  br i1 %.not1315, label %.loopexit, label %.lr.ph

.lr.ph:                                           ; preds = %8, %.lr.ph
  %.01116 = phi ptr [ %17, %.lr.ph ], [ %10, %8 ]
  %14 = load ptr, ptr %.01116, align 8
  %15 = getelementptr inbounds i8, ptr %14, i64 12
  %16 = call noundef zeroext i1 @_ZNK4Luau8Location14containsClosedERKNS_8PositionE(ptr noundef nonnull align 4 dereferenceable(16) %15, ptr noundef nonnull align 4 dereferenceable(8) %3)
  %17 = getelementptr inbounds i8, ptr %.01116, i64 8
  %.not13 = icmp eq ptr %17, %13
  %or.cond = select i1 %16, i1 true, i1 %.not13
  br i1 %or.cond, label %.loopexit.loopexit, label %.lr.ph

.loopexit.loopexit:                               ; preds = %.lr.ph
  %.0.ph = xor i1 %16, true
  br label %.loopexit

.loopexit:                                        ; preds = %.loopexit.loopexit, %8, %2
  %.0 = phi i1 [ false, %2 ], [ true, %8 ], [ %.0.ph, %.loopexit.loopexit ]
  ret i1 %.0
}